target datalayout = "e-m:e-p270:32:32-p271:32:32-p272:64:64-i64:64-i128:128-f80:128-n8:16:32:64-S128"
target triple = "x86_64-unknown-linux-gnu"

%"struct.std::_Rb_tree_key_compare" = type { %"struct.std::less" }
%"struct.std::less" = type { i8 }
%"struct.std::_Rb_tree_header" = type { %"struct.std::_Rb_tree_node_base", i64 }
%"struct.std::_Rb_tree_node_base" = type { i32, ptr, ptr, ptr }
%"class.rocksdb::TailPrefetchStats" = type { [32 x i64], %"class.rocksdb::port::Mutex", i64, i64 }
%"class.rocksdb::port::Mutex" = type { %union.pthread_mutex_t }
%union.pthread_mutex_t = type { %struct.__pthread_mutex_s }
%struct.__pthread_mutex_s = type { i32, i32, i32, i32, i32, i16, i16, %struct.__pthread_internal_list }
%struct.__pthread_internal_list = type { ptr, ptr }
%"class.std::shared_ptr.148" = type { %"class.std::__shared_ptr.149" }
%"class.std::__shared_ptr.149" = type { ptr, %"class.std::__shared_count" }
%"class.std::__shared_count" = type { ptr }
%"class.rocksdb::BlockBasedTableFactory" = type { %"class.rocksdb::TableFactory", %"struct.rocksdb::BlockBasedTableOptions", %"class.std::shared_ptr.148", %"class.rocksdb::TailPrefetchStats" }
%"class.rocksdb::TableFactory" = type { %"class.rocksdb::Customizable" }
%"class.rocksdb::Customizable" = type { %"class.rocksdb::Configurable" }
%"class.rocksdb::Configurable" = type { ptr, %"class.std::vector.130" }
%"class.std::vector.130" = type { %"struct.std::_Vector_base.131" }
%"struct.std::_Vector_base.131" = type { %"struct.std::_Vector_base<rocksdb::Configurable::RegisteredOptions, std::allocator<rocksdb::Configurable::RegisteredOptions>>::_Vector_impl" }
%"struct.std::_Vector_base<rocksdb::Configurable::RegisteredOptions, std::allocator<rocksdb::Configurable::RegisteredOptions>>::_Vector_impl" = type { %"struct.std::_Vector_base<rocksdb::Configurable::RegisteredOptions, std::allocator<rocksdb::Configurable::RegisteredOptions>>::_Vector_impl_data" }
%"struct.std::_Vector_base<rocksdb::Configurable::RegisteredOptions, std::allocator<rocksdb::Configurable::RegisteredOptions>>::_Vector_impl_data" = type { ptr, ptr, ptr }
%"struct.rocksdb::BlockBasedTableOptions" = type { %"class.std::shared_ptr", i8, i8, i8, i8, %"struct.rocksdb::MetadataCacheOptions", i8, i8, double, i8, i8, %"class.std::shared_ptr.135", %"class.std::shared_ptr.138", i64, i32, i32, i32, i64, %"struct.rocksdb::CacheUsageOptions", i8, i8, i8, %"class.std::shared_ptr.145", i8, i8, i8, i32, i32, i8, i8, i8, i64, i8, i64, i64 }
%"class.std::shared_ptr" = type { %"class.std::__shared_ptr" }
%"class.std::__shared_ptr" = type { ptr, %"class.std::__shared_count" }
%"struct.rocksdb::MetadataCacheOptions" = type { i32, i32, i32 }
%"class.std::shared_ptr.135" = type { %"class.std::__shared_ptr.136" }
%"class.std::__shared_ptr.136" = type { ptr, %"class.std::__shared_count" }
%"class.std::shared_ptr.138" = type { %"class.std::__shared_ptr.139" }
%"class.std::__shared_ptr.139" = type { ptr, %"class.std::__shared_count" }
%"struct.rocksdb::CacheUsageOptions" = type { %"struct.rocksdb::CacheEntryRoleOptions", %"class.std::map" }
%"struct.rocksdb::CacheEntryRoleOptions" = type { i32 }
%"class.std::map" = type { %"class.std::_Rb_tree" }
%"class.std::_Rb_tree" = type { %"struct.std::_Rb_tree<rocksdb::CacheEntryRole, std::pair<const rocksdb::CacheEntryRole, rocksdb::CacheEntryRoleOptions>, std::_Select1st<std::pair<const rocksdb::CacheEntryRole, rocksdb::CacheEntryRoleOptions>>, std::less<rocksdb::CacheEntryRole>>::_Rb_tree_impl" }
%"struct.std::_Rb_tree<rocksdb::CacheEntryRole, std::pair<const rocksdb::CacheEntryRole, rocksdb::CacheEntryRoleOptions>, std::_Select1st<std::pair<const rocksdb::CacheEntryRole, rocksdb::CacheEntryRoleOptions>>, std::less<rocksdb::CacheEntryRole>>::_Rb_tree_impl" = type { %"struct.std::_Rb_tree_key_compare", %"struct.std::_Rb_tree_header" }
%"class.std::shared_ptr.145" = type { %"class.std::__shared_ptr.146" }
%"class.std::__shared_ptr.146" = type { ptr, %"class.std::__shared_count" }

@.str.135 = private unnamed_addr constant [11 x i8] c"BlockCache\00", align 1

; Function Attrs: mustprogress uwtable
define linkonce_odr noundef ptr @_ZNK7rocksdb12Customizable13GetOptionsPtrERKNSt7__cxx1112basic_stringIcSt11char_traitsIcESaIcEEE(ptr noundef nonnull align 8 dereferenceable(32) %this, ptr noundef nonnull align 8 dereferenceable(32) %name) unnamed_addr #0 comdat align 2 {
entry:
  %retval = alloca ptr, align 8
  %this.addr = alloca ptr, align 8
  %name.addr = alloca ptr, align 8
  %ptr = alloca ptr, align 8
  %inner = alloca ptr, align 8
  store ptr %this, ptr %this.addr, align 8
  store ptr %name, ptr %name.addr, align 8
  %this1 = load ptr, ptr %this.addr, align 8
  %0 = load ptr, ptr %name.addr, align 8
  %call = call noundef ptr @_ZNK7rocksdb12Configurable13GetOptionsPtrERKNSt7__cxx1112basic_stringIcSt11char_traitsIcESaIcEEE(ptr noundef nonnull align 8 dereferenceable(32) %this1, ptr noundef nonnull align 8 dereferenceable(32) %0)
  store ptr %call, ptr %ptr, align 8
  %1 = load ptr, ptr %ptr, align 8
  %cmp = icmp ne ptr %1, null
  br i1 %cmp, label %if.then, label %if.else

if.then:                                          ; preds = %entry
  %2 = load ptr, ptr %ptr, align 8
  store ptr %2, ptr %retval, align 8
  br label %return

if.else:                                          ; preds = %entry
  %vtable = load ptr, ptr %this1, align 8
  %vfn = getelementptr inbounds ptr, ptr %vtable, i64 17
  %3 = load ptr, ptr %vfn, align 8
  %call2 = call noundef ptr %3(ptr noundef nonnull align 8 dereferenceable(32) %this1)
  store ptr %call2, ptr %inner, align 8
  %4 = load ptr, ptr %inner, align 8
  %cmp3 = icmp ne ptr %4, null
  br i1 %cmp3, label %if.then4, label %if.else8

if.then4:                                         ; preds = %if.else
  %5 = load ptr, ptr %inner, align 8
  %6 = load ptr, ptr %name.addr, align 8
  %vtable5 = load ptr, ptr %5, align 8
  %vfn6 = getelementptr inbounds ptr, ptr %vtable5, i64 7
  %7 = load ptr, ptr %vfn6, align 8
  %call7 = call noundef ptr %7(ptr noundef nonnull align 8 dereferenceable(32) %5, ptr noundef nonnull align 8 dereferenceable(32) %6)
  store ptr %call7, ptr %retval, align 8
  br label %return

if.else8:                                         ; preds = %if.else
  store ptr null, ptr %retval, align 8
  br label %return

return:                                           ; preds = %if.else8, %if.then4, %if.then
  %8 = load ptr, ptr %retval, align 8
  ret ptr %8
}

; Function Attrs: mustprogress nounwind uwtable
define linkonce_odr noundef ptr @_ZNKSt12__shared_ptrIN7rocksdb5CacheELN9__gnu_cxx12_Lock_policyE2EE3getEv(ptr noundef nonnull align 8 dereferenceable(16) %this) #1 comdat align 2 {
entry:
  %this.addr = alloca ptr, align 8
  store ptr %this, ptr %this.addr, align 8
  %this1 = load ptr, ptr %this.addr, align 8
  %_M_ptr = getelementptr inbounds %"class.std::__shared_ptr.136", ptr %this1, i32 0, i32 0
  %0 = load ptr, ptr %_M_ptr, align 8
  ret ptr %0
}

; Function Attrs: mustprogress nounwind uwtable
define linkonce_odr noundef zeroext i1 @_ZSteqIcSt11char_traitsIcESaIcEEbRKNSt7__cxx1112basic_stringIT_T0_T1_EEPKS5_(ptr noundef nonnull align 8 dereferenceable(32) %__lhs, ptr noundef %__rhs) #1 comdat {
entry:
  %__lhs.addr = alloca ptr, align 8
  %__rhs.addr = alloca ptr, align 8
  store ptr %__lhs, ptr %__lhs.addr, align 8
  store ptr %__rhs, ptr %__rhs.addr, align 8
  %0 = load ptr, ptr %__lhs.addr, align 8
  %1 = load ptr, ptr %__rhs.addr, align 8
  %call = call noundef i32 @_ZNKSt7__cxx1112basic_stringIcSt11char_traitsIcESaIcEE7compareEPKc(ptr noundef nonnull align 8 dereferenceable(32) %0, ptr noundef %1) #3
  %cmp = icmp eq i32 %call, 0
  ret i1 %cmp
}

; Function Attrs: mustprogress nounwind uwtable
define linkonce_odr noundef ptr @_ZN7rocksdb12TableFactory15kBlockCacheOptsEv() #1 comdat align 2 {
entry:
  ret ptr @.str.135
}

; Function Attrs: mustprogress uwtable
define noundef ptr @_ZNK7rocksdb22BlockBasedTableFactory13GetOptionsPtrERKNSt7__cxx1112basic_stringIcSt11char_traitsIcESaIcEEE(ptr noundef nonnull align 8 dereferenceable(608) %this, ptr noundef nonnull align 8 dereferenceable(32) %name) unnamed_addr #0 align 2 {
entry:
  %retval = alloca ptr, align 8
  %this.addr = alloca ptr, align 8
  %name.addr = alloca ptr, align 8
  store ptr %this, ptr %this.addr, align 8
  store ptr %name, ptr %name.addr, align 8
  %this1 = load ptr, ptr %this.addr, align 8
  %0 = load ptr, ptr %name.addr, align 8
  %call = call noundef ptr @_ZN7rocksdb12TableFactory15kBlockCacheOptsEv()
  %call2 = call noundef zeroext i1 @_ZSteqIcSt11char_traitsIcESaIcEEbRKNSt7__cxx1112basic_stringIT_T0_T1_EEPKS5_(ptr noundef nonnull align 8 dereferenceable(32) %0, ptr noundef %call)
  br i1 %call2, label %if.then, label %if.else6

if.then:                                          ; preds = %entry
  %table_options_ = getelementptr inbounds %"class.rocksdb::BlockBasedTableFactory", ptr %this1, i32 0, i32 1
  %no_block_cache = getelementptr inbounds %"struct.rocksdb::BlockBasedTableOptions", ptr %table_options_, i32 0, i32 10
  %1 = load i8, ptr %no_block_cache, align 1
  %tobool = trunc i8 %1 to i1
  br i1 %tobool, label %if.then3, label %if.else

if.then3:                                         ; preds = %if.then
  store ptr null, ptr %retval, align 8
  br label %return

if.else:                                          ; preds = %if.then
  %table_options_4 = getelementptr inbounds %"class.rocksdb::BlockBasedTableFactory", ptr %this1, i32 0, i32 1
  %block_cache = getelementptr inbounds %"struct.rocksdb::BlockBasedTableOptions", ptr %table_options_4, i32 0, i32 11
  %call5 = call noundef ptr @_ZNKSt12__shared_ptrIN7rocksdb5CacheELN9__gnu_cxx12_Lock_policyE2EE3getEv(ptr noundef nonnull align 8 dereferenceable(16) %block_cache) #3
  store ptr %call5, ptr %retval, align 8
  br label %return

if.else6:                                         ; preds = %entry
  %2 = load ptr, ptr %name.addr, align 8
  %call7 = call noundef ptr @_ZNK7rocksdb12Customizable13GetOptionsPtrERKNSt7__cxx1112basic_stringIcSt11char_traitsIcESaIcEEE(ptr noundef nonnull align 8 dereferenceable(32) %this1, ptr noundef nonnull align 8 dereferenceable(32) %2)
  store ptr %call7, ptr %retval, align 8
  br label %return

return:                                           ; preds = %if.else6, %if.else, %if.then3
  %3 = load ptr, ptr %retval, align 8
  ret ptr %3
}