; Function Attrs: mustprogress uwtable
define noundef ptr @_ZNK7rocksdb22BlockBasedTableFactory13GetOptionsPtrERKNSt7__cxx1112basic_stringIcSt11char_traitsIcESaIcEEE(ptr noundef nonnull align 8 dereferenceable(608) %this, ptr noundef nonnull align 8 dereferenceable(32) %name) unnamed_addr #2 align 2 {
entry:
  %call.i = tail call noundef i32 @_ZNKSt7__cxx1112basic_stringIcSt11char_traitsIcESaIcEE7compareEPKc(ptr noundef nonnull align 8 dereferenceable(32) %name, ptr noundef nonnull @.str.135) #25
  %cmp.i = icmp eq i32 %call.i, 0
  br i1 %cmp.i, label %if.then, label %if.else6

if.then:                                          ; preds = %entry
  %no_block_cache = getelementptr inbounds i8, ptr %this, i64 81
  %0 = load i8, ptr %no_block_cache, align 1
  %1 = and i8 %0, 1
  %tobool.not = icmp eq i8 %1, 0
  br i1 %tobool.not, label %if.else, label %return

if.else:                                          ; preds = %if.then
  %block_cache = getelementptr inbounds i8, ptr %this, i64 88
  %2 = load ptr, ptr %block_cache, align 8
  br label %return

if.else6:                                         ; preds = %entry
  %call.i2 = tail call noundef ptr @_ZNK7rocksdb12Configurable13GetOptionsPtrERKNSt7__cxx1112basic_stringIcSt11char_traitsIcESaIcEEE(ptr noundef nonnull align 8 dereferenceable(32) %this, ptr noundef nonnull align 8 dereferenceable(32) %name)
  %cmp.not.i = icmp eq ptr %call.i2, null
  br i1 %cmp.not.i, label %if.else.i, label %return

if.else.i:                                        ; preds = %if.else6
  %vtable.i = load ptr, ptr %this, align 8
  %vfn.i = getelementptr inbounds i8, ptr %vtable.i, i64 136
  %3 = load ptr, ptr %vfn.i, align 8
  %call2.i = tail call noundef ptr %3(ptr noundef nonnull align 8 dereferenceable(32) %this)
  %cmp3.not.i = icmp eq ptr %call2.i, null
  br i1 %cmp3.not.i, label %return, label %if.then4.i

if.then4.i:                                       ; preds = %if.else.i
  %vtable5.i = load ptr, ptr %call2.i, align 8
  %vfn6.i = getelementptr inbounds i8, ptr %vtable5.i, i64 56
  %4 = load ptr, ptr %vfn6.i, align 8
  %call7.i = tail call noundef ptr %4(ptr noundef nonnull align 8 dereferenceable(32) %call2.i, ptr noundef nonnull align 8 dereferenceable(32) %name)
  br label %return

return:                                           ; preds = %if.then4.i, %if.else.i, %if.else6, %if.then, %if.else
  %retval.0 = phi ptr [ %2, %if.else ], [ null, %if.then ], [ %call7.i, %if.then4.i ], [ %call.i2, %if.else6 ], [ null, %if.else.i ]
  ret ptr %retval.0
}